target datalayout = "e-m:e-p270:32:32-p271:32:32-p272:64:64-i64:64-i128:128-f80:128-n8:16:32:64-S128"
target triple = "x86_64-pc-linux-gnu"

%struct.FmgrInfo = type { ptr, i32, i16, i8, i8, i8, ptr, ptr, ptr }

@.str.2 = private unnamed_addr constant [50 x i8] c"could not find hash function for hash operator %u\00", align 1
@.str.3 = private unnamed_addr constant [15 x i8] c"execGrouping.c\00", align 1
@__func__.execTuplesHashPrepare = private unnamed_addr constant [22 x i8] c"execTuplesHashPrepare\00", align 1

; Function Attrs: nounwind uwtable
define dso_local void @execTuplesHashPrepare(i32 noundef %0, ptr noundef %1, ptr noundef %2, ptr noundef %3) #0 {
  %5 = alloca i32, align 4
  %6 = alloca ptr, align 8
  %7 = alloca ptr, align 8
  %8 = alloca ptr, align 8
  %9 = alloca i32, align 4
  %10 = alloca i32, align 4
  %11 = alloca i32, align 4
  %12 = alloca i32, align 4
  %13 = alloca i32, align 4
  store i32 %0, ptr %5, align 4
  store ptr %1, ptr %6, align 8
  store ptr %2, ptr %7, align 8
  store ptr %3, ptr %8, align 8
  call void @llvm.lifetime.start.p0(i64 4, ptr %9) #9
  %14 = load i32, ptr %5, align 4
  %15 = sext i32 %14 to i64
  %16 = mul i64 %15, 4
  %17 = call ptr @palloc(i64 noundef %16)
  %18 = load ptr, ptr %7, align 8
  store ptr %17, ptr %18, align 8
  %19 = load i32, ptr %5, align 4
  %20 = sext i32 %19 to i64
  %21 = mul i64 %20, 48
  %22 = call ptr @palloc(i64 noundef %21)
  %23 = load ptr, ptr %8, align 8
  store ptr %22, ptr %23, align 8
  store i32 0, ptr %9, align 4
  br label %24

24:                                               ; preds = %63, %4
  %25 = load i32, ptr %9, align 4
  %26 = load i32, ptr %5, align 4
  %27 = icmp slt i32 %25, %26
  br i1 %27, label %28, label %66

28:                                               ; preds = %24
  call void @llvm.lifetime.start.p0(i64 4, ptr %10) #9
  %29 = load ptr, ptr %6, align 8
  %30 = load i32, ptr %9, align 4
  %31 = sext i32 %30 to i64
  %32 = getelementptr inbounds i32, ptr %29, i64 %31
  %33 = load i32, ptr %32, align 4
  store i32 %33, ptr %10, align 4
  call void @llvm.lifetime.start.p0(i64 4, ptr %11) #9
  call void @llvm.lifetime.start.p0(i64 4, ptr %12) #9
  call void @llvm.lifetime.start.p0(i64 4, ptr %13) #9
  %34 = load i32, ptr %10, align 4
  %35 = call i32 @get_opcode(i32 noundef %34)
  store i32 %35, ptr %11, align 4
  %36 = load i32, ptr %10, align 4
  %37 = call zeroext i1 @get_op_hash_functions(i32 noundef %36, ptr noundef %12, ptr noundef %13)
  br i1 %37, label %50, label %38

38:                                               ; preds = %28
  br label %39

39:                                               ; preds = %38
  br i1 true, label %40, label %42

40:                                               ; preds = %39
  %41 = call zeroext i1 @errstart_cold(i32 noundef 21, ptr noundef null) #10
  br i1 %41, label %44, label %47

42:                                               ; preds = %39
  %43 = call zeroext i1 @errstart(i32 noundef 21, ptr noundef null)
  br i1 %43, label %44, label %47

44:                                               ; preds = %42, %40
  %45 = load i32, ptr %10, align 4
  %46 = call i32 (ptr, ...) @errmsg_internal(ptr noundef @.str.2, i32 noundef %45)
  call void @errfinish(ptr noundef @.str.3, i32 noundef 118, ptr noundef @__func__.execTuplesHashPrepare)
  br label %47

47:                                               ; preds = %44, %42, %40
  unreachable

48:                                               ; No predecessors!
  br label %49

49:                                               ; preds = %48
  br label %50

50:                                               ; preds = %49, %28
  %51 = load i32, ptr %11, align 4
  %52 = load ptr, ptr %7, align 8
  %53 = load ptr, ptr %52, align 8
  %54 = load i32, ptr %9, align 4
  %55 = sext i32 %54 to i64
  %56 = getelementptr inbounds i32, ptr %53, i64 %55
  store i32 %51, ptr %56, align 4
  %57 = load i32, ptr %13, align 4
  %58 = load ptr, ptr %8, align 8
  %59 = load ptr, ptr %58, align 8
  %60 = load i32, ptr %9, align 4
  %61 = sext i32 %60 to i64
  %62 = getelementptr inbounds %struct.FmgrInfo, ptr %59, i64 %61
  call void @fmgr_info(i32 noundef %57, ptr noundef %62)
  call void @llvm.lifetime.end.p0(i64 4, ptr %13) #9
  call void @llvm.lifetime.end.p0(i64 4, ptr %12) #9
  call void @llvm.lifetime.end.p0(i64 4, ptr %11) #9
  call void @llvm.lifetime.end.p0(i64 4, ptr %10) #9
  br label %63

63:                                               ; preds = %50
  %64 = load i32, ptr %9, align 4
  %65 = add i32 %64, 1
  store i32 %65, ptr %9, align 4
  br label %24, !llvm.loop !15

66:                                               ; preds = %24
  call void @llvm.lifetime.end.p0(i64 4, ptr %9) #9
  ret void
}