; Function Attrs: nounwind uwtable
define dso_local void @execTuplesHashPrepare(i32 noundef %0, ptr noundef readonly captures(none) %1, ptr noundef captures(none) initializes((0, 8)) %2, ptr noundef captures(none) initializes((0, 8)) %3) local_unnamed_addr #0 {
  %5 = alloca i32, align 4
  %6 = alloca i32, align 4
  %7 = sext i32 %0 to i64
  %8 = shl nsw i64 %7, 2
  %9 = tail call ptr @palloc(i64 noundef %8) #15
  store ptr %9, ptr %2, align 8
  %10 = mul nsw i64 %7, 48
  %11 = tail call ptr @palloc(i64 noundef %10) #15
  store ptr %11, ptr %3, align 8
  %12 = icmp sgt i32 %0, 0
  br i1 %12, label %.lr.ph.preheader, label %._crit_edge

.lr.ph.preheader:                                 ; preds = %4
  %wide.trip.count = zext nneg i32 %0 to i64
  br label %.lr.ph

.lr.ph:                                           ; preds = %.lr.ph.preheader, %20
  %indvars.iv = phi i64 [ 0, %.lr.ph.preheader ], [ %indvars.iv.next, %20 ]
  %13 = getelementptr inbounds nuw i32, ptr %1, i64 %indvars.iv
  %14 = load i32, ptr %13, align 4
  call void @llvm.lifetime.start.p0(i64 4, ptr nonnull %5) #15
  call void @llvm.lifetime.start.p0(i64 4, ptr nonnull %6) #15
  %15 = call i32 @get_opcode(i32 noundef %14) #15
  %16 = call zeroext i1 @get_op_hash_functions(i32 noundef %14, ptr noundef nonnull %5, ptr noundef nonnull %6) #15
  br i1 %16, label %20, label %17

17:                                               ; preds = %.lr.ph
  %18 = call zeroext i1 @errstart_cold(i32 noundef 21, ptr noundef null) #16
  call void @llvm.assume(i1 %18)
  %19 = call i32 (ptr, ...) @errmsg_internal(ptr noundef nonnull @.str.2, i32 noundef %14) #15
  call void @errfinish(ptr noundef nonnull @.str.3, i32 noundef 118, ptr noundef nonnull @__func__.execTuplesHashPrepare) #15
  unreachable

20:                                               ; preds = %.lr.ph
  %21 = load ptr, ptr %2, align 8
  %22 = getelementptr inbounds nuw i32, ptr %21, i64 %indvars.iv
  store i32 %15, ptr %22, align 4
  %23 = load i32, ptr %6, align 4
  %24 = load ptr, ptr %3, align 8
  %25 = getelementptr inbounds nuw %struct.FmgrInfo, ptr %24, i64 %indvars.iv
  call void @fmgr_info(i32 noundef %23, ptr noundef %25) #15
  call void @llvm.lifetime.end.p0(i64 4, ptr nonnull %6) #15
  call void @llvm.lifetime.end.p0(i64 4, ptr nonnull %5) #15
  %indvars.iv.next = add nuw nsw i64 %indvars.iv, 1
  %exitcond.not = icmp eq i64 %indvars.iv.next, %wide.trip.count
  br i1 %exitcond.not, label %._crit_edge, label %.lr.ph, !llvm.loop !14

._crit_edge:                                      ; preds = %20, %4
  ret void
}